; Function Attrs: nounwind uwtable
define internal noundef i32 @xmlparse_clear(ptr noundef captures(none) %0) #0 {
  %2 = load ptr, ptr @handler_info, align 16, !tbaa !40
  %.not15.i = icmp eq ptr %2, null
  br i1 %.not15.i, label %clear_handlers.exit, label %.lr.ph.i

.lr.ph.i:                                         ; preds = %1
  %3 = getelementptr inbounds nuw i8, ptr %0, i64 72
  %4 = getelementptr inbounds nuw i8, ptr %0, i64 16
  br label %.lr.ph.split.us.i

.lr.ph.split.us.i:                                ; preds = %Py_DECREF.exit.us.i, %.lr.ph.i
  %5 = phi ptr [ %21, %Py_DECREF.exit.us.i ], [ @handler_info, %.lr.ph.i ]
  %6 = phi i64 [ %20, %Py_DECREF.exit.us.i ], [ 0, %.lr.ph.i ]
  %.016.us.i = phi i32 [ %19, %Py_DECREF.exit.us.i ], [ 0, %.lr.ph.i ]
  %7 = load ptr, ptr %3, align 8, !tbaa !36
  %8 = getelementptr ptr, ptr %7, i64 %6
  %9 = load ptr, ptr %8, align 8, !tbaa !14
  %.not14.us.i = icmp eq ptr %9, null
  br i1 %.not14.us.i, label %Py_DECREF.exit.us.i, label %10

10:                                               ; preds = %.lr.ph.split.us.i
  store ptr null, ptr %8, align 8, !tbaa !14
  %11 = load i32, ptr %9, align 8, !tbaa !13
  %.not.i.us.i = icmp sgt i32 %11, -1
  br i1 %.not.i.us.i, label %12, label %Py_DECREF.exit.us.i

12:                                               ; preds = %10
  %13 = add nsw i32 %11, -1
  store i32 %13, ptr %9, align 8, !tbaa !13
  %14 = icmp eq i32 %13, 0
  br i1 %14, label %15, label %Py_DECREF.exit.us.i

15:                                               ; preds = %12
  tail call void @_Py_Dealloc(ptr noundef nonnull %9) #8
  br label %Py_DECREF.exit.us.i

Py_DECREF.exit.us.i:                              ; preds = %15, %12, %10, %.lr.ph.split.us.i
  %16 = getelementptr inbounds nuw i8, ptr %5, i64 8
  %17 = load ptr, ptr %16, align 8, !tbaa !56
  %18 = load ptr, ptr %4, align 8, !tbaa !39
  tail call void %17(ptr noundef %18, ptr noundef null) #8
  %19 = add i32 %.016.us.i, 1
  %20 = sext i32 %19 to i64
  %21 = getelementptr [64 x %struct.HandlerInfo], ptr @handler_info, i64 0, i64 %20
  %22 = load ptr, ptr %21, align 16, !tbaa !40
  %.not.us.i = icmp eq ptr %22, null
  br i1 %.not.us.i, label %clear_handlers.exit, label %.lr.ph.split.us.i, !llvm.loop !45

clear_handlers.exit:                              ; preds = %Py_DECREF.exit.us.i, %1
  %23 = getelementptr inbounds nuw i8, ptr %0, i64 64
  %24 = load ptr, ptr %23, align 8, !tbaa !14
  %.not = icmp eq ptr %24, null
  br i1 %.not, label %Py_DECREF.exit, label %25

25:                                               ; preds = %clear_handlers.exit
  store ptr null, ptr %23, align 8, !tbaa !14
  %26 = load i32, ptr %24, align 8, !tbaa !13
  %.not.i = icmp sgt i32 %26, -1
  br i1 %.not.i, label %27, label %Py_DECREF.exit

27:                                               ; preds = %25
  %28 = add nsw i32 %26, -1
  store i32 %28, ptr %24, align 8, !tbaa !13
  %29 = icmp eq i32 %28, 0
  br i1 %29, label %30, label %Py_DECREF.exit

30:                                               ; preds = %27
  tail call void @_Py_Dealloc(ptr noundef nonnull %24) #8
  br label %Py_DECREF.exit

Py_DECREF.exit:                                   ; preds = %30, %27, %25, %clear_handlers.exit
  ret i32 0
}